; Function Attrs: nounwind memory(readwrite, argmem: read) uwtable
define internal fastcc range(i32 0, 2) i32 @arkode_butcher_order6h(ptr noundef readonly captures(address_is_null) %0, ptr noundef readonly captures(address_is_null) %1, ptr noundef readonly captures(address_is_null) %2, ptr noundef readonly captures(address_is_null) %3, ptr noundef readonly captures(address_is_null) %4, ptr noundef readonly captures(address_is_null) %5, i32 noundef %6) unnamed_addr #10 {
  %8 = sext i32 %6 to i64
  %9 = tail call noalias ptr @calloc(i64 noundef %8, i64 noundef 8) #16
  %10 = tail call noalias ptr @calloc(i64 noundef %8, i64 noundef 8) #16
  %11 = icmp eq ptr %4, null
  %12 = icmp eq ptr %5, null
  %or.cond.i = or i1 %11, %12
  %13 = icmp eq ptr %9, null
  %or.cond3.i = or i1 %or.cond.i, %13
  %14 = icmp slt i32 %6, 1
  %or.cond5.i = or i1 %14, %or.cond3.i
  br i1 %or.cond5.i, label %arkode_butcher_mv.exit, label %.preheader.us.preheader.i

.preheader.us.preheader.i:                        ; preds = %7
  %15 = zext nneg i32 %6 to i64
  %16 = shl nuw nsw i64 %15, 3
  br label %.preheader.us.i

.preheader.us.i:                                  ; preds = %._crit_edge.us.i, %.preheader.us.preheader.i
  %indvars.iv40.i = phi i64 [ 0, %.preheader.us.preheader.i ], [ %indvars.iv.next41.i, %._crit_edge.us.i ]
  %17 = getelementptr inbounds nuw ptr, ptr %4, i64 %indvars.iv40.i
  %18 = load ptr, ptr %17, align 8, !tbaa !12
  %19 = getelementptr inbounds nuw double, ptr %9, i64 %indvars.iv40.i
  %.promoted.us.i = load double, ptr %19, align 8, !tbaa !18
  br label %20

20:                                               ; preds = %20, %.preheader.us.i
  %indvars.iv.i = phi i64 [ 0, %.preheader.us.i ], [ %indvars.iv.next.i, %20 ]
  %21 = phi double [ %.promoted.us.i, %.preheader.us.i ], [ %26, %20 ]
  %22 = getelementptr inbounds nuw double, ptr %18, i64 %indvars.iv.i
  %23 = load double, ptr %22, align 8, !tbaa !18
  %24 = getelementptr inbounds nuw double, ptr %5, i64 %indvars.iv.i
  %25 = load double, ptr %24, align 8, !tbaa !18
  %26 = tail call double @llvm.fmuladd.f64(double %23, double %25, double %21)
  %indvars.iv.next.i = add nuw nsw i64 %indvars.iv.i, 1
  %exitcond.not.i = icmp eq i64 %indvars.iv.next.i, %15
  br i1 %exitcond.not.i, label %._crit_edge.us.i, label %20

._crit_edge.us.i:                                 ; preds = %20
  store double %26, ptr %19, align 8, !tbaa !18
  %indvars.iv.next41.i = add nuw nsw i64 %indvars.iv40.i, 1
  %exitcond44.not.i = icmp eq i64 %indvars.iv.next41.i, %15
  br i1 %exitcond44.not.i, label %27, label %.preheader.us.i

arkode_butcher_mv.exit:                           ; preds = %7
  tail call void @free(ptr noundef %9) #17
  tail call void @free(ptr noundef %10) #17
  br label %arkode_butcher_dot.exit

27:                                               ; preds = %._crit_edge.us.i
  %28 = icmp eq ptr %3, null
  %29 = icmp eq ptr %10, null
  %or.cond3.i36 = or i1 %28, %29
  br i1 %or.cond3.i36, label %arkode_butcher_vv.exit, label %.preheader.i

.preheader.i:                                     ; preds = %27, %.preheader.i
  %indvars.iv.i38 = phi i64 [ %indvars.iv.next.i39, %.preheader.i ], [ 0, %27 ]
  %30 = getelementptr inbounds nuw double, ptr %3, i64 %indvars.iv.i38
  %31 = load double, ptr %30, align 8, !tbaa !18
  %32 = getelementptr inbounds nuw double, ptr %9, i64 %indvars.iv.i38
  %33 = load double, ptr %32, align 8, !tbaa !18
  %34 = fmul double %31, %33
  %35 = getelementptr inbounds nuw double, ptr %10, i64 %indvars.iv.i38
  store double %34, ptr %35, align 8, !tbaa !18
  %indvars.iv.next.i39 = add nuw nsw i64 %indvars.iv.i38, 1
  %exitcond.not.i40 = icmp eq i64 %indvars.iv.next.i39, %15
  br i1 %exitcond.not.i40, label %36, label %.preheader.i

arkode_butcher_vv.exit:                           ; preds = %27
  tail call void @free(ptr noundef nonnull %9) #17
  tail call void @free(ptr noundef %10) #17
  br label %arkode_butcher_dot.exit

36:                                               ; preds = %.preheader.i
  %37 = icmp eq ptr %2, null
  br i1 %37, label %arkode_butcher_mv.exit55, label %.preheader.us.preheader.i44

.preheader.us.preheader.i44:                      ; preds = %36
  tail call void @llvm.memset.p0.i64(ptr nonnull align 8 %9, i8 0, i64 %16, i1 false), !tbaa !18
  br label %.preheader.us.i45

.preheader.us.i45:                                ; preds = %._crit_edge.us.i51, %.preheader.us.preheader.i44
  %indvars.iv40.i46 = phi i64 [ 0, %.preheader.us.preheader.i44 ], [ %indvars.iv.next41.i52, %._crit_edge.us.i51 ]
  %38 = getelementptr inbounds nuw ptr, ptr %2, i64 %indvars.iv40.i46
  %39 = load ptr, ptr %38, align 8, !tbaa !12
  %40 = getelementptr inbounds nuw double, ptr %9, i64 %indvars.iv40.i46
  %.promoted.us.i47 = load double, ptr %40, align 8, !tbaa !18
  br label %41

41:                                               ; preds = %41, %.preheader.us.i45
  %indvars.iv.i48 = phi i64 [ 0, %.preheader.us.i45 ], [ %indvars.iv.next.i49, %41 ]
  %42 = phi double [ %.promoted.us.i47, %.preheader.us.i45 ], [ %47, %41 ]
  %43 = getelementptr inbounds nuw double, ptr %39, i64 %indvars.iv.i48
  %44 = load double, ptr %43, align 8, !tbaa !18
  %45 = getelementptr inbounds nuw double, ptr %10, i64 %indvars.iv.i48
  %46 = load double, ptr %45, align 8, !tbaa !18
  %47 = tail call double @llvm.fmuladd.f64(double %44, double %46, double %42)
  %indvars.iv.next.i49 = add nuw nsw i64 %indvars.iv.i48, 1
  %exitcond.not.i50 = icmp eq i64 %indvars.iv.next.i49, %15
  br i1 %exitcond.not.i50, label %._crit_edge.us.i51, label %41

._crit_edge.us.i51:                               ; preds = %41
  store double %47, ptr %40, align 8, !tbaa !18
  %indvars.iv.next41.i52 = add nuw nsw i64 %indvars.iv40.i46, 1
  %exitcond44.not.i53 = icmp eq i64 %indvars.iv.next41.i52, %15
  br i1 %exitcond44.not.i53, label %48, label %.preheader.us.i45

arkode_butcher_mv.exit55:                         ; preds = %36
  tail call void @free(ptr noundef nonnull %9) #17
  tail call void @free(ptr noundef nonnull %10) #17
  br label %arkode_butcher_dot.exit

48:                                               ; preds = %._crit_edge.us.i51
  %49 = icmp eq ptr %1, null
  br i1 %49, label %arkode_butcher_vv.exit66, label %.preheader.i61

.preheader.i61:                                   ; preds = %48, %.preheader.i61
  %indvars.iv.i62 = phi i64 [ %indvars.iv.next.i63, %.preheader.i61 ], [ 0, %48 ]
  %50 = getelementptr inbounds nuw double, ptr %1, i64 %indvars.iv.i62
  %51 = load double, ptr %50, align 8, !tbaa !18
  %52 = getelementptr inbounds nuw double, ptr %9, i64 %indvars.iv.i62
  %53 = load double, ptr %52, align 8, !tbaa !18
  %54 = fmul double %51, %53
  %55 = getelementptr inbounds nuw double, ptr %10, i64 %indvars.iv.i62
  store double %54, ptr %55, align 8, !tbaa !18
  %indvars.iv.next.i63 = add nuw nsw i64 %indvars.iv.i62, 1
  %exitcond.not.i64 = icmp eq i64 %indvars.iv.next.i63, %15
  br i1 %exitcond.not.i64, label %56, label %.preheader.i61

arkode_butcher_vv.exit66:                         ; preds = %48
  tail call void @free(ptr noundef nonnull %9) #17
  tail call void @free(ptr noundef nonnull %10) #17
  br label %arkode_butcher_dot.exit

56:                                               ; preds = %.preheader.i61
  %57 = icmp eq ptr %0, null
  br i1 %57, label %arkode_butcher_dot.exit, label %.preheader

.preheader:                                       ; preds = %56, %.preheader
  %indvars.iv.i70 = phi i64 [ %indvars.iv.next.i71, %.preheader ], [ 0, %56 ]
  %58 = phi double [ %63, %.preheader ], [ 0.000000e+00, %56 ]
  %59 = getelementptr inbounds nuw double, ptr %0, i64 %indvars.iv.i70
  %60 = load double, ptr %59, align 8, !tbaa !18
  %61 = getelementptr inbounds nuw double, ptr %10, i64 %indvars.iv.i70
  %62 = load double, ptr %61, align 8, !tbaa !18
  %63 = tail call double @llvm.fmuladd.f64(double %60, double %62, double %58)
  %indvars.iv.next.i71 = add nuw nsw i64 %indvars.iv.i70, 1
  %exitcond.not.i72 = icmp eq i64 %indvars.iv.next.i71, %15
  br i1 %exitcond.not.i72, label %64, label %.preheader

64:                                               ; preds = %.preheader
  tail call void @free(ptr noundef %9) #17
  tail call void @free(ptr noundef nonnull %10) #17
  %65 = fadd double %63, 0xBF95555555555555
  %66 = tail call double @llvm.fabs.f64(double %65)
  %67 = fcmp ule double %66, 0x3E50000000000000
  %68 = zext i1 %67 to i32
  br label %arkode_butcher_dot.exit

arkode_butcher_dot.exit:                          ; preds = %56, %64, %arkode_butcher_vv.exit66, %arkode_butcher_mv.exit55, %arkode_butcher_vv.exit, %arkode_butcher_mv.exit
  %.0 = phi i32 [ 0, %arkode_butcher_mv.exit ], [ 0, %arkode_butcher_vv.exit ], [ 0, %arkode_butcher_mv.exit55 ], [ 0, %arkode_butcher_vv.exit66 ], [ %68, %64 ], [ 0, %56 ]
  ret i32 %.0
}